target datalayout = "e-m:e-p270:32:32-p271:32:32-p272:64:64-i64:64-i128:128-f80:128-n8:16:32:64-S128"
target triple = "x86_64-pc-linux-gnu"

%struct._generic_SUNAdaptController = type { ptr, ptr, ptr }
%struct._generic_SUNAdaptController_Ops = type { ptr, ptr, ptr, ptr, ptr, ptr, ptr, ptr, ptr, ptr, ptr }
%struct._mriStepControlContent = type { ptr, ptr, ptr }

@__func__.SUNAdaptController_MRIStep = private unnamed_addr constant [27 x i8] c"SUNAdaptController_MRIStep\00", align 1

; Function Attrs: nounwind uwtable
define ptr @SUNAdaptController_MRIStep(ptr noundef %0, ptr noundef %1) #0 {
  %3 = alloca ptr, align 8
  %4 = alloca ptr, align 8
  %5 = alloca ptr, align 8
  %6 = alloca ptr, align 8
  %7 = alloca ptr, align 8
  %8 = alloca ptr, align 8
  %9 = alloca i32, align 4
  %10 = alloca i32, align 4
  store ptr %0, ptr %4, align 8, !tbaa !3
  store ptr %1, ptr %5, align 8, !tbaa !8
  call void @llvm.lifetime.start.p0(i64 8, ptr %6) #4
  call void @llvm.lifetime.start.p0(i64 8, ptr %7) #4
  call void @llvm.lifetime.start.p0(i64 8, ptr %8) #4
  call void @llvm.lifetime.start.p0(i64 4, ptr %9) #4
  %11 = load ptr, ptr %5, align 8, !tbaa !8
  %12 = icmp eq ptr %11, null
  br i1 %12, label %13, label %14

13:                                               ; preds = %2
  store ptr null, ptr %3, align 8
  store i32 1, ptr %10, align 4
  br label %78

14:                                               ; preds = %2
  %15 = load ptr, ptr %5, align 8, !tbaa !8
  %16 = call i32 @SUNAdaptController_GetType(ptr noundef %15)
  %17 = icmp ne i32 %16, 2
  br i1 %17, label %18, label %19

18:                                               ; preds = %14
  store ptr null, ptr %3, align 8
  store i32 1, ptr %10, align 4
  br label %78

19:                                               ; preds = %14
  %20 = load ptr, ptr %4, align 8, !tbaa !3
  %21 = call i32 @mriStep_AccessStepMem(ptr noundef %20, ptr noundef @__func__.SUNAdaptController_MRIStep, ptr noundef %8)
  store i32 %21, ptr %9, align 4, !tbaa !10
  %22 = load i32, ptr %9, align 4, !tbaa !10
  %23 = icmp ne i32 %22, 0
  br i1 %23, label %24, label %25

24:                                               ; preds = %19
  store ptr null, ptr %3, align 8
  store i32 1, ptr %10, align 4
  br label %78

25:                                               ; preds = %19
  store ptr null, ptr %6, align 8, !tbaa !8
  %26 = load ptr, ptr %5, align 8, !tbaa !8
  %27 = getelementptr inbounds nuw %struct._generic_SUNAdaptController, ptr %26, i32 0, i32 2
  %28 = load ptr, ptr %27, align 8, !tbaa !12
  %29 = call ptr @SUNAdaptController_NewEmpty(ptr noundef %28)
  store ptr %29, ptr %6, align 8, !tbaa !8
  %30 = load ptr, ptr %6, align 8, !tbaa !8
  %31 = icmp eq ptr %30, null
  br i1 %31, label %32, label %33

32:                                               ; preds = %25
  store ptr null, ptr %3, align 8
  store i32 1, ptr %10, align 4
  br label %78

33:                                               ; preds = %25
  %34 = load ptr, ptr %6, align 8, !tbaa !8
  %35 = getelementptr inbounds nuw %struct._generic_SUNAdaptController, ptr %34, i32 0, i32 1
  %36 = load ptr, ptr %35, align 8, !tbaa !16
  %37 = getelementptr inbounds nuw %struct._generic_SUNAdaptController_Ops, ptr %36, i32 0, i32 0
  store ptr @SUNAdaptController_GetType_MRIStep, ptr %37, align 8, !tbaa !17
  %38 = load ptr, ptr %6, align 8, !tbaa !8
  %39 = getelementptr inbounds nuw %struct._generic_SUNAdaptController, ptr %38, i32 0, i32 1
  %40 = load ptr, ptr %39, align 8, !tbaa !16
  %41 = getelementptr inbounds nuw %struct._generic_SUNAdaptController_Ops, ptr %40, i32 0, i32 1
  store ptr @SUNAdaptController_EstimateStep_MRIStep, ptr %41, align 8, !tbaa !19
  %42 = load ptr, ptr %6, align 8, !tbaa !8
  %43 = getelementptr inbounds nuw %struct._generic_SUNAdaptController, ptr %42, i32 0, i32 1
  %44 = load ptr, ptr %43, align 8, !tbaa !16
  %45 = getelementptr inbounds nuw %struct._generic_SUNAdaptController_Ops, ptr %44, i32 0, i32 4
  store ptr @SUNAdaptController_Reset_MRIStep, ptr %45, align 8, !tbaa !20
  %46 = load ptr, ptr %6, align 8, !tbaa !8
  %47 = getelementptr inbounds nuw %struct._generic_SUNAdaptController, ptr %46, i32 0, i32 1
  %48 = load ptr, ptr %47, align 8, !tbaa !16
  %49 = getelementptr inbounds nuw %struct._generic_SUNAdaptController_Ops, ptr %48, i32 0, i32 6
  store ptr @SUNAdaptController_Write_MRIStep, ptr %49, align 8, !tbaa !21
  %50 = load ptr, ptr %6, align 8, !tbaa !8
  %51 = getelementptr inbounds nuw %struct._generic_SUNAdaptController, ptr %50, i32 0, i32 1
  %52 = load ptr, ptr %51, align 8, !tbaa !16
  %53 = getelementptr inbounds nuw %struct._generic_SUNAdaptController_Ops, ptr %52, i32 0, i32 8
  store ptr @SUNAdaptController_UpdateH_MRIStep, ptr %53, align 8, !tbaa !22
  %54 = load ptr, ptr %6, align 8, !tbaa !8
  %55 = getelementptr inbounds nuw %struct._generic_SUNAdaptController, ptr %54, i32 0, i32 1
  %56 = load ptr, ptr %55, align 8, !tbaa !16
  %57 = getelementptr inbounds nuw %struct._generic_SUNAdaptController_Ops, ptr %56, i32 0, i32 10
  store ptr @SUNAdaptController_Space_MRIStep, ptr %57, align 8, !tbaa !23
  store ptr null, ptr %7, align 8, !tbaa !24
  %58 = call noalias ptr @malloc(i64 noundef 24) #5
  store ptr %58, ptr %7, align 8, !tbaa !24
  %59 = load ptr, ptr %7, align 8, !tbaa !24
  %60 = icmp eq ptr %59, null
  br i1 %60, label %61, label %64

61:                                               ; preds = %33
  %62 = load ptr, ptr %6, align 8, !tbaa !8
  %63 = call i32 @SUNAdaptController_Destroy(ptr noundef %62)
  store ptr null, ptr %3, align 8
  store i32 1, ptr %10, align 4
  br label %78

64:                                               ; preds = %33
  %65 = load ptr, ptr %4, align 8, !tbaa !3
  %66 = load ptr, ptr %7, align 8, !tbaa !24
  %67 = getelementptr inbounds nuw %struct._mriStepControlContent, ptr %66, i32 0, i32 0
  store ptr %65, ptr %67, align 8, !tbaa !26
  %68 = load ptr, ptr %8, align 8, !tbaa !29
  %69 = load ptr, ptr %7, align 8, !tbaa !24
  %70 = getelementptr inbounds nuw %struct._mriStepControlContent, ptr %69, i32 0, i32 1
  store ptr %68, ptr %70, align 8, !tbaa !30
  %71 = load ptr, ptr %5, align 8, !tbaa !8
  %72 = load ptr, ptr %7, align 8, !tbaa !24
  %73 = getelementptr inbounds nuw %struct._mriStepControlContent, ptr %72, i32 0, i32 2
  store ptr %71, ptr %73, align 8, !tbaa !31
  %74 = load ptr, ptr %7, align 8, !tbaa !24
  %75 = load ptr, ptr %6, align 8, !tbaa !8
  %76 = getelementptr inbounds nuw %struct._generic_SUNAdaptController, ptr %75, i32 0, i32 0
  store ptr %74, ptr %76, align 8, !tbaa !32
  %77 = load ptr, ptr %6, align 8, !tbaa !8
  store ptr %77, ptr %3, align 8
  store i32 1, ptr %10, align 4
  br label %78

78:                                               ; preds = %64, %61, %32, %24, %18, %13
  call void @llvm.lifetime.end.p0(i64 4, ptr %9) #4
  call void @llvm.lifetime.end.p0(i64 8, ptr %8) #4
  call void @llvm.lifetime.end.p0(i64 8, ptr %7) #4
  call void @llvm.lifetime.end.p0(i64 8, ptr %6) #4
  %79 = load ptr, ptr %3, align 8
  ret ptr %79
}