; Function Attrs: nounwind uwtable
define ptr @SUNAdaptController_MRIStep(ptr noundef %0, ptr noundef %1) local_unnamed_addr #0 {
  %3 = alloca ptr, align 8
  call void @llvm.lifetime.start.p0(i64 8, ptr nonnull %3) #4
  %4 = icmp eq ptr %1, null
  br i1 %4, label %30, label %5

5:                                                ; preds = %2
  %6 = tail call i32 @SUNAdaptController_GetType(ptr noundef nonnull %1) #4
  %.not = icmp eq i32 %6, 2
  br i1 %.not, label %7, label %30

7:                                                ; preds = %5
  %8 = call i32 @mriStep_AccessStepMem(ptr noundef %0, ptr noundef nonnull @__func__.SUNAdaptController_MRIStep, ptr noundef nonnull %3) #4
  %.not25 = icmp eq i32 %8, 0
  br i1 %.not25, label %9, label %30

9:                                                ; preds = %7
  %10 = getelementptr inbounds nuw i8, ptr %1, i64 16
  %11 = load ptr, ptr %10, align 8, !tbaa !3
  %12 = call ptr @SUNAdaptController_NewEmpty(ptr noundef %11) #4
  %13 = icmp eq ptr %12, null
  br i1 %13, label %30, label %14

14:                                               ; preds = %9
  %15 = getelementptr inbounds nuw i8, ptr %12, i64 8
  %16 = load ptr, ptr %15, align 8, !tbaa !10
  store ptr @SUNAdaptController_GetType_MRIStep, ptr %16, align 8, !tbaa !11
  %17 = getelementptr inbounds nuw i8, ptr %16, i64 8
  store ptr @SUNAdaptController_EstimateStep_MRIStep, ptr %17, align 8, !tbaa !13
  %18 = getelementptr inbounds nuw i8, ptr %16, i64 32
  store ptr @SUNAdaptController_Reset_MRIStep, ptr %18, align 8, !tbaa !14
  %19 = getelementptr inbounds nuw i8, ptr %16, i64 48
  store ptr @SUNAdaptController_Write_MRIStep, ptr %19, align 8, !tbaa !15
  %20 = getelementptr inbounds nuw i8, ptr %16, i64 64
  store ptr @SUNAdaptController_UpdateH_MRIStep, ptr %20, align 8, !tbaa !16
  %21 = getelementptr inbounds nuw i8, ptr %16, i64 80
  store ptr @SUNAdaptController_Space_MRIStep, ptr %21, align 8, !tbaa !17
  %22 = call noalias dereferenceable_or_null(24) ptr @malloc(i64 noundef 24) #5
  %23 = icmp eq ptr %22, null
  br i1 %23, label %24, label %26

24:                                               ; preds = %14
  %25 = call i32 @SUNAdaptController_Destroy(ptr noundef nonnull %12) #4
  br label %30

26:                                               ; preds = %14
  store ptr %0, ptr %22, align 8, !tbaa !18
  %27 = load ptr, ptr %3, align 8, !tbaa !23
  %28 = getelementptr inbounds nuw i8, ptr %22, i64 8
  store ptr %27, ptr %28, align 8, !tbaa !24
  %29 = getelementptr inbounds nuw i8, ptr %22, i64 16
  store ptr %1, ptr %29, align 8, !tbaa !25
  store ptr %22, ptr %12, align 8, !tbaa !26
  br label %30

30:                                               ; preds = %9, %7, %5, %2, %26, %24
  %.0 = phi ptr [ null, %24 ], [ %12, %26 ], [ null, %2 ], [ null, %5 ], [ null, %7 ], [ null, %9 ]
  call void @llvm.lifetime.end.p0(i64 8, ptr nonnull %3) #4
  ret ptr %.0
}